target datalayout = "e-m:e-p270:32:32-p271:32:32-p272:64:64-i64:64-i128:128-f80:128-n8:16:32:64-S128"
target triple = "x86_64-pc-linux-gnu"

%struct.H5C_cache_entry_t = type { ptr, i64, i64, ptr, i8, ptr, i8, i8, i8, i8, i32, i8, i8, i8, i8, i8, i32, ptr, i32, i32, i32, i32, i32, i8, i8, ptr, ptr, ptr, ptr, ptr, ptr, i8, i32, i8, i64, ptr, i64, i64, i32, i8, i32, i32, i8, ptr, ptr, ptr }
%struct.H5FA_dbk_page_t = type { %struct.H5C_cache_entry_t, ptr, ptr, ptr, i64, i64, i64 }

@H5FA_init_g = external global i8, align 1
@H5_libterm_g = external global i8, align 1
@.str.3 = private unnamed_addr constant [103 x i8] c"generated/home/dtcxzyw/WorkSpace/Projects/compilers/llvm-opt-benchmark/bench/hdf5/hdf5/src/H5FAcache.c\00", align 1
@H5E_FARRAY_g = external global i64, align 8
@H5E_BADVALUE_g = external global i64, align 8
@H5E_CANTUNDEPEND_g = external global i64, align 8
@.str.14 = private unnamed_addr constant [35 x i8] c"unknown action from metadata cache\00", align 1
@__func__.H5FA__cache_dblk_page_notify = private unnamed_addr constant [29 x i8] c"H5FA__cache_dblk_page_notify\00", align 1
@.str.30 = private unnamed_addr constant [87 x i8] c"unable to destroy flush dependency between data block page and fixed array 'top' proxy\00", align 1

; Function Attrs: nounwind uwtable
define internal i32 @H5FA__cache_dblk_page_notify(i32 noundef %0, ptr noundef %1) #0 {
  %3 = alloca i32, align 4
  %4 = alloca ptr, align 8
  %5 = alloca ptr, align 8
  %6 = alloca i32, align 4
  %7 = alloca i8, align 1
  store i32 %0, ptr %3, align 4, !tbaa !22
  store ptr %1, ptr %4, align 8, !tbaa !3
  call void @llvm.lifetime.start.p0(i64 8, ptr %5) #7
  %8 = load ptr, ptr %4, align 8, !tbaa !3
  store ptr %8, ptr %5, align 8, !tbaa !88
  call void @llvm.lifetime.start.p0(i64 4, ptr %6) #7
  store i32 0, ptr %6, align 4, !tbaa !22
  call void @llvm.lifetime.start.p0(i64 1, ptr %7) #7
  store i8 0, ptr %7, align 1, !tbaa !11
  %9 = load i8, ptr @H5FA_init_g, align 1, !tbaa !11, !range !13, !noundef !14
  %10 = trunc i8 %9 to i1
  br i1 %10, label %15, label %11

11:                                               ; preds = %2
  %12 = load i8, ptr @H5_libterm_g, align 1, !tbaa !11, !range !13, !noundef !14
  %13 = trunc i8 %12 to i1
  %14 = xor i1 %13, true
  br label %15

15:                                               ; preds = %11, %2
  %16 = phi i1 [ true, %2 ], [ %14, %11 ]
  %17 = xor i1 %16, true
  %18 = xor i1 %17, true
  %19 = zext i1 %18 to i32
  %20 = sext i32 %19 to i64
  %21 = call i64 @llvm.expect.i64(i64 %20, i64 1)
  %22 = icmp ne i64 %21, 0
  br i1 %22, label %23, label %83

23:                                               ; preds = %15
  %24 = load i32, ptr %3, align 4, !tbaa !22
  switch i32 %24, label %62 [
    i32 0, label %25
    i32 1, label %25
    i32 2, label %25
    i32 3, label %26
    i32 4, label %61
    i32 5, label %61
    i32 6, label %61
    i32 7, label %61
    i32 8, label %61
    i32 9, label %61
  ]

25:                                               ; preds = %23, %23, %23
  br label %81

26:                                               ; preds = %23
  %27 = load ptr, ptr %5, align 8, !tbaa !88
  %28 = getelementptr inbounds nuw %struct.H5FA_dbk_page_t, ptr %27, i32 0, i32 3
  %29 = load ptr, ptr %28, align 8, !tbaa !97
  %30 = icmp ne ptr %29, null
  br i1 %30, label %31, label %60

31:                                               ; preds = %26
  %32 = load ptr, ptr %5, align 8, !tbaa !88
  %33 = getelementptr inbounds nuw %struct.H5FA_dbk_page_t, ptr %32, i32 0, i32 3
  %34 = load ptr, ptr %33, align 8, !tbaa !97
  %35 = load ptr, ptr %5, align 8, !tbaa !88
  %36 = call i32 @H5AC_proxy_entry_remove_child(ptr noundef %34, ptr noundef %35)
  %37 = icmp slt i32 %36, 0
  br i1 %37, label %38, label %57

38:                                               ; preds = %31
  br label %39

39:                                               ; preds = %38
  br label %40

40:                                               ; preds = %39
  br label %41

41:                                               ; preds = %40
  %42 = load i64, ptr @H5E_FARRAY_g, align 8, !tbaa !19
  %43 = load i64, ptr @H5E_CANTUNDEPEND_g, align 8, !tbaa !19
  %44 = call i32 (ptr, ptr, i32, i64, i64, ptr, ...) @H5E_printf_stack(ptr noundef @.str.3, ptr noundef @__func__.H5FA__cache_dblk_page_notify, i32 noundef 1184, i64 noundef %42, i64 noundef %43, ptr noundef @.str.30)
  br label %45

45:                                               ; preds = %41
  br label %46

46:                                               ; preds = %45
  store i8 1, ptr %7, align 1, !tbaa !11
  %47 = load i8, ptr %7, align 1, !tbaa !11, !range !13, !noundef !14
  %48 = trunc i8 %47 to i1
  %49 = zext i1 %48 to i8
  store i8 %49, ptr %7, align 1, !tbaa !11
  br label %50

50:                                               ; preds = %46
  br label %51

51:                                               ; preds = %50
  br label %52

52:                                               ; preds = %51
  store i32 -1, ptr %6, align 4, !tbaa !22
  br label %82

53:                                               ; No predecessors!
  br label %54

54:                                               ; preds = %53
  br label %55

55:                                               ; preds = %54
  br label %56

56:                                               ; preds = %55
  br label %57

57:                                               ; preds = %56, %31
  %58 = load ptr, ptr %5, align 8, !tbaa !88
  %59 = getelementptr inbounds nuw %struct.H5FA_dbk_page_t, ptr %58, i32 0, i32 3
  store ptr null, ptr %59, align 8, !tbaa !97
  br label %60

60:                                               ; preds = %57, %26
  br label %81

61:                                               ; preds = %23, %23, %23, %23, %23, %23
  br label %81

62:                                               ; preds = %23
  br label %63

63:                                               ; preds = %62
  br label %64

64:                                               ; preds = %63
  br label %65

65:                                               ; preds = %64
  %66 = load i64, ptr @H5E_FARRAY_g, align 8, !tbaa !19
  %67 = load i64, ptr @H5E_BADVALUE_g, align 8, !tbaa !19
  %68 = call i32 (ptr, ptr, i32, i64, i64, ptr, ...) @H5E_printf_stack(ptr noundef @.str.3, ptr noundef @__func__.H5FA__cache_dblk_page_notify, i32 noundef 1200, i64 noundef %66, i64 noundef %67, ptr noundef @.str.14)
  br label %69

69:                                               ; preds = %65
  br label %70

70:                                               ; preds = %69
  store i8 1, ptr %7, align 1, !tbaa !11
  %71 = load i8, ptr %7, align 1, !tbaa !11, !range !13, !noundef !14
  %72 = trunc i8 %71 to i1
  %73 = zext i1 %72 to i8
  store i8 %73, ptr %7, align 1, !tbaa !11
  br label %74

74:                                               ; preds = %70
  br label %75

75:                                               ; preds = %74
  br label %76

76:                                               ; preds = %75
  store i32 -1, ptr %6, align 4, !tbaa !22
  br label %82

77:                                               ; No predecessors!
  br label %78

78:                                               ; preds = %77
  br label %79

79:                                               ; preds = %78
  br label %80

80:                                               ; preds = %79
  br label %81

81:                                               ; preds = %80, %61, %60, %25
  br label %82

82:                                               ; preds = %81, %76, %52
  br label %83

83:                                               ; preds = %82, %15
  %84 = load i32, ptr %6, align 4, !tbaa !22
  call void @llvm.lifetime.end.p0(i64 1, ptr %7) #7
  call void @llvm.lifetime.end.p0(i64 4, ptr %6) #7
  call void @llvm.lifetime.end.p0(i64 8, ptr %5) #7
  ret i32 %84
}