; Function Attrs: nounwind uwtable
define internal range(i32 -1, 1) i32 @H5FA__cache_dblk_page_notify(i32 noundef %0, ptr noundef %1) #0 {
  %3 = load i8, ptr @H5FA_init_g, align 1, !tbaa !3, !range !7, !noundef !8
  %4 = trunc nuw i8 %3 to i1
  %5 = load i8, ptr @H5_libterm_g, align 1, !range !7
  %6 = trunc nuw i8 %5 to i1
  %7 = xor i1 %6, true
  %8 = select i1 %4, i1 true, i1 %7
  br i1 %8, label %9, label %25, !prof !9

9:                                                ; preds = %2
  switch i32 %0, label %21 [
    i32 0, label %25
    i32 1, label %25
    i32 2, label %25
    i32 3, label %10
    i32 4, label %25
    i32 5, label %25
    i32 6, label %25
    i32 7, label %25
    i32 8, label %25
    i32 9, label %25
  ]

10:                                               ; preds = %9
  %11 = getelementptr inbounds nuw i8, ptr %1, i64 264
  %12 = load ptr, ptr %11, align 8, !tbaa !81
  %.not = icmp eq ptr %12, null
  br i1 %.not, label %25, label %13

13:                                               ; preds = %10
  %14 = tail call i32 @H5AC_proxy_entry_remove_child(ptr noundef nonnull %12, ptr noundef nonnull %1) #6
  %15 = icmp slt i32 %14, 0
  br i1 %15, label %16, label %20

16:                                               ; preds = %13
  %17 = load i64, ptr @H5E_FARRAY_g, align 8, !tbaa !15
  %18 = load i64, ptr @H5E_CANTUNDEPEND_g, align 8, !tbaa !15
  %19 = tail call i32 (ptr, ptr, i32, i64, i64, ptr, ...) @H5E_printf_stack(ptr noundef nonnull @.str.3, ptr noundef nonnull @__func__.H5FA__cache_dblk_page_notify, i32 noundef 1184, i64 noundef %17, i64 noundef %18, ptr noundef nonnull @.str.30) #6
  br label %25

20:                                               ; preds = %13
  store ptr null, ptr %11, align 8, !tbaa !81
  br label %25

21:                                               ; preds = %9
  %22 = load i64, ptr @H5E_FARRAY_g, align 8, !tbaa !15
  %23 = load i64, ptr @H5E_BADVALUE_g, align 8, !tbaa !15
  %24 = tail call i32 (ptr, ptr, i32, i64, i64, ptr, ...) @H5E_printf_stack(ptr noundef nonnull @.str.3, ptr noundef nonnull @__func__.H5FA__cache_dblk_page_notify, i32 noundef 1200, i64 noundef %22, i64 noundef %23, ptr noundef nonnull @.str.14) #6
  br label %25

25:                                               ; preds = %16, %21, %9, %9, %9, %9, %9, %9, %10, %20, %9, %9, %9, %2
  %.0 = phi i32 [ -1, %21 ], [ -1, %16 ], [ 0, %20 ], [ 0, %10 ], [ 0, %9 ], [ 0, %9 ], [ 0, %9 ], [ 0, %9 ], [ 0, %9 ], [ 0, %9 ], [ 0, %9 ], [ 0, %9 ], [ 0, %9 ], [ 0, %2 ]
  ret i32 %.0
}